(lp0
(lp1
(F0.6666666666666666
F0.6666666666666666
F0.6666666666666666
F0.47058823529411764
tp2
a(F0.6666666666666666
F0.4666666666666667
F0.6666666666666666
F0.8235294117647058
tp3
a(F0.6666666666666666
F0.35555555555555557
F0.6666666666666666
F0.8823529411764706
tp4
a(F1.0
F1.0
F0.3333333333333333
F0.0
tp5
a(F0.6666666666666666
F0.7111111111111111
F0.6666666666666666
F0.7058823529411765
tp6
a(F0.3333333333333333
F0.28888888888888886
F0.6666666666666666
F0.7647058823529411
tp7
a(F0.6666666666666666
F0.4222222222222222
F0.6666666666666666
F0.9411764705882353
tp8
a(F0.6666666666666666
F0.8777777777777778
F0.6666666666666666
F0.17647058823529413
tp9
a(F1.0
F0.8555555555555555
F0.6666666666666666
F0.35294117647058826
tp10
a(F0.6666666666666666
F0.5111111111111111
F0.6666666666666666
F0.7647058823529411
tp11
a(F0.6666666666666666
F0.34444444444444444
F0.6666666666666666
F0.8823529411764706
tp12
a(F0.6666666666666666
F0.7666666666666667
F0.6666666666666666
F0.4117647058823529
tp13
a(F0.6666666666666666
F0.5666666666666667
F0.6666666666666666
F0.8235294117647058
tp14
a(F0.6666666666666666
F0.5333333333333333
F0.6666666666666666
F0.7058823529411765
tp15
a(F0.6666666666666666
F0.45555555555555555
F0.6666666666666666
F0.9411764705882353
tp16
a(F0.6666666666666666
F0.28888888888888886
F0.6666666666666666
F0.7647058823529411
tp17
a(F0.6666666666666666
F0.3111111111111111
F0.6666666666666666
F0.9411764705882353
tp18
a(F0.6666666666666666
F0.4777777777777778
F0.6666666666666666
F0.8235294117647058
tp19
a(F0.6666666666666666
F0.32222222222222224
F0.6666666666666666
F0.9411764705882353
tp20
a(F0.6666666666666666
F0.8222222222222222
F0.6666666666666666
F0.29411764705882354
tp21
a(F0.6666666666666666
F0.34444444444444444
F0.6666666666666666
F0.8823529411764706
tp22
a(F0.6666666666666666
F0.45555555555555555
F0.6666666666666666
F0.8235294117647058
tp23
a(F0.6666666666666666
F0.34444444444444444
F0.6666666666666666
F0.7647058823529411
tp24
a(F1.0
F0.6777777777777778
F0.6666666666666666
F0.5882352941176471
tp25
a(F0.6666666666666666
F0.8555555555555555
F0.6666666666666666
F0.23529411764705882
tp26
a(F0.6666666666666666
F0.4888888888888889
F0.6666666666666666
F0.5294117647058824
tp27
a(F0.6666666666666666
F0.6444444444444445
F0.6666666666666666
F0.7647058823529411
tp28
a(F0.3333333333333333
F0.34444444444444444
F0.6666666666666666
F0.8823529411764706
tp29
a(F0.6666666666666666
F0.6333333333333333
F0.6666666666666666
F0.7058823529411765
tp30
a(F0.3333333333333333
F0.6444444444444445
F0.6666666666666666
F0.4117647058823529
tp31
a(F0.6666666666666666
F0.3111111111111111
F0.6666666666666666
F1.0
tp32
a(F0.6666666666666666
F0.28888888888888886
F0.6666666666666666
F1.0
tp33
a(F0.6666666666666666
F0.9444444444444444
F0.6666666666666666
F0.35294117647058826
tp34
a(F0.6666666666666666
F0.9888888888888889
F0.6666666666666666
F0.058823529411764705
tp35
a(F0.6666666666666666
F0.8333333333333334
F0.6666666666666666
F0.35294117647058826
tp36
a(F0.6666666666666666
F0.6777777777777778
F0.6666666666666666
F0.5882352941176471
tp37
a(F0.6666666666666666
F0.5888888888888889
F0.6666666666666666
F0.7058823529411765
tp38
a(F0.6666666666666666
F0.5555555555555556
F0.6666666666666666
F0.7058823529411765
tp39
a(F0.6666666666666666
F0.6333333333333333
F0.6666666666666666
F0.5294117647058824
tp40
aa(lp41
(F1.0
F0.6385542168674698
F0.75
F0.3333333333333333
tp42
a(F1.0
F0.4819277108433735
F0.75
F0.7916666666666666
tp43
a(F1.0
F0.3614457831325301
F0.75
F0.8333333333333334
tp44
a(F1.0
F1.0
F0.25
F0.0
tp45
a(F1.0
F0.7469879518072289
F0.75
F0.7083333333333334
tp46
a(F0.5
F0.3132530120481928
F0.75
F0.8333333333333334
tp47
a(F1.0
F0.46987951807228917
F0.75
F1.0
tp48
a(F1.0
F0.8554216867469879
F0.75
F0.08333333333333333
tp49
a(F1.0
F0.8554216867469879
F0.5
F0.2916666666666667
tp50
a(F1.0
F0.5662650602409639
F0.75
F0.875
tp51
a(F1.0
F0.37349397590361444
F0.75
F0.9166666666666666
tp52
a(F1.0
F0.8192771084337349
F0.75
F0.5416666666666666
tp53
a(F1.0
F0.6385542168674698
F0.75
F0.9583333333333334
tp54
a(F1.0
F0.6024096385542169
F0.75
F0.875
tp55
a(F1.0
F0.4939759036144578
F0.75
F0.9583333333333334
tp56
a(F1.0
F0.3132530120481928
F0.75
F0.8333333333333334
tp57
a(F1.0
F0.30120481927710846
F0.75
F0.8333333333333334
tp58
a(F1.0
F0.5542168674698795
F0.75
F1.0
tp59
a(F1.0
F0.3253012048192771
F0.75
F0.875
tp60
a(F1.0
F0.8674698795180723
F0.75
F0.4166666666666667
tp61
a(F1.0
F0.3373493975903614
F0.75
F0.7916666666666666
tp62
a(F1.0
F0.5060240963855421
F0.75
F0.9166666666666666
tp63
a(F1.0
F0.37349397590361444
F0.75
F0.8333333333333334
tp64
a(F1.0
F0.6867469879518072
F0.5
F0.5416666666666666
tp65
a(F1.0
F0.8795180722891566
F0.75
F0.2916666666666667
tp66
a(F1.0
F0.5301204819277109
F0.75
F0.6666666666666666
tp67
a(F1.0
F0.7108433734939759
F0.75
F0.875
tp68
a(F0.5
F0.3855421686746988
F0.75
F0.9583333333333334
tp69
a(F1.0
F0.6987951807228916
F0.75
F0.8333333333333334
tp70
a(F0.5
F0.6385542168674698
F0.75
F0.375
tp71
a(F1.0
F0.3373493975903614
F0.75
F1.0
tp72
a(F1.0
F0.3132530120481928
F0.75
F1.0
tp73
a(F1.0
F0.927710843373494
F0.75
F0.20833333333333334
tp74
a(F1.0
F0.9879518072289156
F0.75
F0.041666666666666664
tp75
a(F1.0
F0.8192771084337349
F0.75
F0.25
tp76
a(F1.0
F0.7349397590361446
F0.75
F0.7083333333333334
tp77
a(F1.0
F0.6144578313253012
F0.75
F0.7083333333333334
tp78
a(F1.0
F0.6144578313253012
F0.75
F0.8333333333333334
tp79
a(F1.0
F0.6746987951807228
F0.75
F0.625
tp80
aa(lp81
(F1.0
F0.6385542168674698
F0.75
F0.3333333333333333
tp82
a(F1.0
F0.4819277108433735
F0.75
F0.7916666666666666
tp83
a(F1.0
F0.3614457831325301
F0.75
F0.8333333333333334
tp84
a(F1.0
F1.0
F0.25
F0.0
tp85
a(F1.0
F0.7469879518072289
F0.75
F0.7083333333333334
tp86
a(F0.5
F0.3132530120481928
F0.75
F0.8333333333333334
tp87
a(F1.0
F0.46987951807228917
F0.75
F1.0
tp88
a(F1.0
F0.8554216867469879
F0.75
F0.08333333333333333
tp89
a(F1.0
F0.8554216867469879
F0.5
F0.2916666666666667
tp90
a(F1.0
F0.5662650602409639
F0.75
F0.875
tp91
a(F1.0
F0.37349397590361444
F0.75
F0.9166666666666666
tp92
a(F1.0
F0.8192771084337349
F0.75
F0.5416666666666666
tp93
a(F1.0
F0.6385542168674698
F0.75
F0.9583333333333334
tp94
a(F1.0
F0.6024096385542169
F0.75
F0.875
tp95
a(F1.0
F0.4939759036144578
F0.75
F0.9583333333333334
tp96
a(F1.0
F0.3132530120481928
F0.75
F0.8333333333333334
tp97
a(F1.0
F0.30120481927710846
F0.75
F0.8333333333333334
tp98
a(F1.0
F0.5542168674698795
F0.75
F1.0
tp99
a(F1.0
F0.3253012048192771
F0.75
F0.875
tp100
a(F1.0
F0.8674698795180723
F0.75
F0.4166666666666667
tp101
a(F1.0
F0.3373493975903614
F0.75
F0.7916666666666666
tp102
a(F1.0
F0.5060240963855421
F0.75
F0.9166666666666666
tp103
a(F1.0
F0.37349397590361444
F0.75
F0.8333333333333334
tp104
a(F1.0
F0.6867469879518072
F0.5
F0.5416666666666666
tp105
a(F1.0
F0.8795180722891566
F0.75
F0.2916666666666667
tp106
a(F1.0
F0.5301204819277109
F0.75
F0.6666666666666666
tp107
a(F1.0
F0.7108433734939759
F0.75
F0.875
tp108
a(F0.5
F0.3855421686746988
F0.75
F0.9583333333333334
tp109
a(F1.0
F0.6987951807228916
F0.75
F0.8333333333333334
tp110
a(F0.5
F0.6385542168674698
F0.75
F0.375
tp111
a(F1.0
F0.3373493975903614
F0.75
F1.0
tp112
a(F1.0
F0.3132530120481928
F0.75
F1.0
tp113
a(F1.0
F0.927710843373494
F0.75
F0.20833333333333334
tp114
a(F1.0
F0.9879518072289156
F0.75
F0.041666666666666664
tp115
a(F1.0
F0.8192771084337349
F0.75
F0.25
tp116
a(F1.0
F0.7349397590361446
F0.75
F0.7083333333333334
tp117
a(F1.0
F0.6144578313253012
F0.75
F0.7083333333333334
tp118
a(F1.0
F0.6144578313253012
F0.75
F0.8333333333333334
tp119
a(F1.0
F0.6746987951807228
F0.75
F0.625
tp120
aa(lp121
(F1.0
F0.6385542168674698
F0.75
F0.3333333333333333
tp122
a(F1.0
F0.4819277108433735
F0.75
F0.7916666666666666
tp123
a(F1.0
F0.3614457831325301
F0.75
F0.8333333333333334
tp124
a(F1.0
F1.0
F0.25
F0.0
tp125
a(F1.0
F0.7469879518072289
F0.75
F0.7083333333333334
tp126
a(F0.5
F0.3132530120481928
F0.75
F0.8333333333333334
tp127
a(F1.0
F0.46987951807228917
F0.75
F1.0
tp128
a(F1.0
F0.8554216867469879
F0.75
F0.08333333333333333
tp129
a(F1.0
F0.8554216867469879
F0.5
F0.2916666666666667
tp130
a(F1.0
F0.5662650602409639
F0.75
F0.875
tp131
a(F1.0
F0.37349397590361444
F0.75
F0.9166666666666666
tp132
a(F1.0
F0.8192771084337349
F0.75
F0.5416666666666666
tp133
a(F1.0
F0.6385542168674698
F0.75
F0.9583333333333334
tp134
a(F1.0
F0.6024096385542169
F0.75
F0.875
tp135
a(F1.0
F0.4939759036144578
F0.75
F0.9583333333333334
tp136
a(F1.0
F0.3132530120481928
F0.75
F0.8333333333333334
tp137
a(F1.0
F0.30120481927710846
F0.75
F0.8333333333333334
tp138
a(F1.0
F0.5542168674698795
F0.75
F1.0
tp139
a(F1.0
F0.3253012048192771
F0.75
F0.875
tp140
a(F1.0
F0.8674698795180723
F0.75
F0.4166666666666667
tp141
a(F1.0
F0.3373493975903614
F0.75
F0.7916666666666666
tp142
a(F1.0
F0.5060240963855421
F0.75
F0.9166666666666666
tp143
a(F1.0
F0.37349397590361444
F0.75
F0.8333333333333334
tp144
a(F1.0
F0.6867469879518072
F0.5
F0.5416666666666666
tp145
a(F1.0
F0.8795180722891566
F0.75
F0.2916666666666667
tp146
a(F1.0
F0.5301204819277109
F0.75
F0.6666666666666666
tp147
a(F1.0
F0.7108433734939759
F0.75
F0.875
tp148
a(F0.5
F0.3855421686746988
F0.75
F0.9583333333333334
tp149
a(F1.0
F0.6987951807228916
F0.75
F0.8333333333333334
tp150
a(F0.5
F0.6385542168674698
F0.75
F0.375
tp151
a(F1.0
F0.3373493975903614
F0.75
F1.0
tp152
a(F1.0
F0.3132530120481928
F0.75
F1.0
tp153
a(F1.0
F0.927710843373494
F0.75
F0.20833333333333334
tp154
a(F1.0
F0.9879518072289156
F0.75
F0.041666666666666664
tp155
a(F1.0
F0.8192771084337349
F0.75
F0.25
tp156
a(F1.0
F0.7349397590361446
F0.75
F0.7083333333333334
tp157
a(F1.0
F0.6144578313253012
F0.75
F0.7083333333333334
tp158
a(F1.0
F0.6144578313253012
F0.75
F0.8333333333333334
tp159
a(F1.0
F0.6746987951807228
F0.75
F0.625
tp160
aa(lp161
(F1.0
F0.6385542168674698
F0.75
F0.3333333333333333
tp162
a(F1.0
F0.4819277108433735
F0.75
F0.7916666666666666
tp163
a(F1.0
F0.3614457831325301
F0.75
F0.8333333333333334
tp164
a(F1.0
F1.0
F0.25
F0.0
tp165
a(F1.0
F0.7469879518072289
F0.75
F0.7083333333333334
tp166
a(F0.5
F0.3132530120481928
F0.75
F0.8333333333333334
tp167
a(F1.0
F0.46987951807228917
F0.75
F1.0
tp168
a(F1.0
F0.8554216867469879
F0.75
F0.08333333333333333
tp169
a(F1.0
F0.8554216867469879
F0.5
F0.2916666666666667
tp170
a(F1.0
F0.5662650602409639
F0.75
F0.875
tp171
a(F1.0
F0.37349397590361444
F0.75
F0.9166666666666666
tp172
a(F1.0
F0.8192771084337349
F0.75
F0.5416666666666666
tp173
a(F1.0
F0.6385542168674698
F0.75
F0.9583333333333334
tp174
a(F1.0
F0.6024096385542169
F0.75
F0.875
tp175
a(F1.0
F0.4939759036144578
F0.75
F0.9583333333333334
tp176
a(F1.0
F0.3132530120481928
F0.75
F0.8333333333333334
tp177
a(F1.0
F0.30120481927710846
F0.75
F0.8333333333333334
tp178
a(F1.0
F0.5542168674698795
F0.75
F1.0
tp179
a(F1.0
F0.3253012048192771
F0.75
F0.875
tp180
a(F1.0
F0.8674698795180723
F0.75
F0.4166666666666667
tp181
a(F1.0
F0.3373493975903614
F0.75
F0.7916666666666666
tp182
a(F1.0
F0.5060240963855421
F0.75
F0.9166666666666666
tp183
a(F1.0
F0.37349397590361444
F0.75
F0.8333333333333334
tp184
a(F1.0
F0.6867469879518072
F0.5
F0.5416666666666666
tp185
a(F1.0
F0.8795180722891566
F0.75
F0.2916666666666667
tp186
a(F1.0
F0.5301204819277109
F0.75
F0.6666666666666666
tp187
a(F1.0
F0.7108433734939759
F0.75
F0.875
tp188
a(F0.5
F0.3855421686746988
F0.75
F0.9583333333333334
tp189
a(F1.0
F0.6987951807228916
F0.75
F0.8333333333333334
tp190
a(F0.5
F0.6385542168674698
F0.75
F0.375
tp191
a(F1.0
F0.3373493975903614
F0.75
F1.0
tp192
a(F1.0
F0.3132530120481928
F0.75
F1.0
tp193
a(F1.0
F0.927710843373494
F0.75
F0.20833333333333334
tp194
a(F1.0
F0.9879518072289156
F0.75
F0.041666666666666664
tp195
a(F1.0
F0.8192771084337349
F0.75
F0.25
tp196
a(F1.0
F0.7349397590361446
F0.75
F0.7083333333333334
tp197
a(F1.0
F0.6144578313253012
F0.75
F0.7083333333333334
tp198
a(F1.0
F0.6144578313253012
F0.75
F0.8333333333333334
tp199
a(F1.0
F0.6746987951807228
F0.75
F0.625
tp200
aa(lp201
(F1.0
F0.6385542168674698
F0.75
F0.3333333333333333
tp202
a(F1.0
F0.4819277108433735
F0.75
F0.7916666666666666
tp203
a(F1.0
F0.3614457831325301
F0.75
F0.8333333333333334
tp204
a(F1.0
F1.0
F0.25
F0.0
tp205
a(F1.0
F0.7469879518072289
F0.75
F0.7083333333333334
tp206
a(F0.5
F0.3132530120481928
F0.75
F0.8333333333333334
tp207
a(F1.0
F0.46987951807228917
F0.75
F1.0
tp208
a(F1.0
F0.8554216867469879
F0.75
F0.08333333333333333
tp209
a(F1.0
F0.8554216867469879
F0.5
F0.2916666666666667
tp210
a(F1.0
F0.5662650602409639
F0.75
F0.875
tp211
a(F1.0
F0.37349397590361444
F0.75
F0.9166666666666666
tp212
a(F1.0
F0.8192771084337349
F0.75
F0.5416666666666666
tp213
a(F1.0
F0.6385542168674698
F0.75
F0.9583333333333334
tp214
a(F1.0
F0.6024096385542169
F0.75
F0.875
tp215
a(F1.0
F0.4939759036144578
F0.75
F0.9583333333333334
tp216
a(F1.0
F0.3132530120481928
F0.75
F0.8333333333333334
tp217
a(F1.0
F0.30120481927710846
F0.75
F0.8333333333333334
tp218
a(F1.0
F0.5542168674698795
F0.75
F1.0
tp219
a(F1.0
F0.3253012048192771
F0.75
F0.875
tp220
a(F1.0
F0.8674698795180723
F0.75
F0.4166666666666667
tp221
a(F1.0
F0.3373493975903614
F0.75
F0.7916666666666666
tp222
a(F1.0
F0.5060240963855421
F0.75
F0.9166666666666666
tp223
a(F1.0
F0.37349397590361444
F0.75
F0.8333333333333334
tp224
a(F1.0
F0.6867469879518072
F0.5
F0.5416666666666666
tp225
a(F1.0
F0.8795180722891566
F0.75
F0.2916666666666667
tp226
a(F1.0
F0.5301204819277109
F0.75
F0.6666666666666666
tp227
a(F1.0
F0.7108433734939759
F0.75
F0.875
tp228
a(F0.5
F0.3855421686746988
F0.75
F0.9583333333333334
tp229
a(F1.0
F0.6987951807228916
F0.75
F0.8333333333333334
tp230
a(F0.5
F0.6385542168674698
F0.75
F0.375
tp231
a(F1.0
F0.3373493975903614
F0.75
F1.0
tp232
a(F1.0
F0.3132530120481928
F0.75
F1.0
tp233
a(F1.0
F0.927710843373494
F0.75
F0.20833333333333334
tp234
a(F1.0
F0.9879518072289156
F0.75
F0.041666666666666664
tp235
a(F1.0
F0.8192771084337349
F0.75
F0.25
tp236
a(F1.0
F0.7349397590361446
F0.75
F0.7083333333333334
tp237
a(F1.0
F0.6144578313253012
F0.75
F0.7083333333333334
tp238
a(F1.0
F0.6144578313253012
F0.75
F0.8333333333333334
tp239
a(F1.0
F0.6746987951807228
F0.75
F0.625
tp240
aa(lp241
(F1.0
F0.6385542168674698
F0.75
F0.3333333333333333
tp242
a(F1.0
F0.4819277108433735
F0.75
F0.7916666666666666
tp243
a(F1.0
F0.3614457831325301
F0.75
F0.8333333333333334
tp244
a(F1.0
F1.0
F0.25
F0.0
tp245
a(F1.0
F0.7469879518072289
F0.75
F0.7083333333333334
tp246
a(F0.5
F0.3132530120481928
F0.75
F0.8333333333333334
tp247
a(F1.0
F0.46987951807228917
F0.75
F1.0
tp248
a(F1.0
F0.8554216867469879
F0.75
F0.08333333333333333
tp249
a(F1.0
F0.8554216867469879
F0.5
F0.2916666666666667
tp250
a(F1.0
F0.5662650602409639
F0.75
F0.875
tp251
a(F1.0
F0.37349397590361444
F0.75
F0.9166666666666666
tp252
a(F1.0
F0.8192771084337349
F0.75
F0.5416666666666666
tp253
a(F1.0
F0.6385542168674698
F0.75
F0.9583333333333334
tp254
a(F1.0
F0.6024096385542169
F0.75
F0.875
tp255
a(F1.0
F0.4939759036144578
F0.75
F0.9583333333333334
tp256
a(F1.0
F0.3132530120481928
F0.75
F0.8333333333333334
tp257
a(F1.0
F0.30120481927710846
F0.75
F0.8333333333333334
tp258
a(F1.0
F0.5542168674698795
F0.75
F1.0
tp259
a(F1.0
F0.3253012048192771
F0.75
F0.875
tp260
a(F1.0
F0.8674698795180723
F0.75
F0.4166666666666667
tp261
a(F1.0
F0.3373493975903614
F0.75
F0.7916666666666666
tp262
a(F1.0
F0.5060240963855421
F0.75
F0.9166666666666666
tp263
a(F1.0
F0.37349397590361444
F0.75
F0.8333333333333334
tp264
a(F1.0
F0.6867469879518072
F0.5
F0.5416666666666666
tp265
a(F1.0
F0.8795180722891566
F0.75
F0.2916666666666667
tp266
a(F1.0
F0.5301204819277109
F0.75
F0.6666666666666666
tp267
a(F1.0
F0.7108433734939759
F0.75
F0.875
tp268
a(F0.5
F0.3855421686746988
F0.75
F0.9583333333333334
tp269
a(F1.0
F0.6987951807228916
F0.75
F0.8333333333333334
tp270
a(F0.5
F0.6385542168674698
F0.75
F0.375
tp271
a(F1.0
F0.3373493975903614
F0.75
F1.0
tp272
a(F1.0
F0.3132530120481928
F0.75
F1.0
tp273
a(F1.0
F0.927710843373494
F0.75
F0.20833333333333334
tp274
a(F1.0
F0.9879518072289156
F0.75
F0.041666666666666664
tp275
a(F1.0
F0.8192771084337349
F0.75
F0.25
tp276
a(F1.0
F0.7349397590361446
F0.75
F0.7083333333333334
tp277
a(F1.0
F0.6144578313253012
F0.75
F0.7083333333333334
tp278
a(F1.0
F0.6144578313253012
F0.75
F0.8333333333333334
tp279
a(F1.0
F0.6746987951807228
F0.75
F0.625
tp280
aa(lp281
(F1.0
F0.6385542168674698
F0.75
F0.3333333333333333
tp282
a(F1.0
F0.4819277108433735
F0.75
F0.7916666666666666
tp283
a(F1.0
F0.3614457831325301
F0.75
F0.8333333333333334
tp284
a(F1.0
F1.0
F0.25
F0.0
tp285
a(F1.0
F0.7469879518072289
F0.75
F0.7083333333333334
tp286
a(F0.5
F0.3132530120481928
F0.75
F0.8333333333333334
tp287
a(F1.0
F0.46987951807228917
F0.75
F1.0
tp288
a(F1.0
F0.8554216867469879
F0.75
F0.08333333333333333
tp289
a(F1.0
F0.8554216867469879
F0.5
F0.2916666666666667
tp290
a(F1.0
F0.5662650602409639
F0.75
F0.875
tp291
a(F1.0
F0.37349397590361444
F0.75
F0.9166666666666666
tp292
a(F1.0
F0.8192771084337349
F0.75
F0.5416666666666666
tp293
a(F1.0
F0.6385542168674698
F0.75
F0.9583333333333334
tp294
a(F1.0
F0.6024096385542169
F0.75
F0.875
tp295
a(F1.0
F0.4939759036144578
F0.75
F0.9583333333333334
tp296
a(F1.0
F0.3132530120481928
F0.75
F0.8333333333333334
tp297
a(F1.0
F0.30120481927710846
F0.75
F0.8333333333333334
tp298
a(F1.0
F0.5542168674698795
F0.75
F1.0
tp299
a(F1.0
F0.3253012048192771
F0.75
F0.875
tp300
a(F1.0
F0.8674698795180723
F0.75
F0.4166666666666667
tp301
a(F1.0
F0.3373493975903614
F0.75
F0.7916666666666666
tp302
a(F1.0
F0.5060240963855421
F0.75
F0.9166666666666666
tp303
a(F1.0
F0.37349397590361444
F0.75
F0.8333333333333334
tp304
a(F1.0
F0.6867469879518072
F0.5
F0.5416666666666666
tp305
a(F1.0
F0.8795180722891566
F0.75
F0.2916666666666667
tp306
a(F1.0
F0.5301204819277109
F0.75
F0.6666666666666666
tp307
a(F1.0
F0.7108433734939759
F0.75
F0.875
tp308
a(F0.5
F0.3855421686746988
F0.75
F0.9583333333333334
tp309
a(F1.0
F0.6987951807228916
F0.75
F0.8333333333333334
tp310
a(F0.5
F0.6385542168674698
F0.75
F0.375
tp311
a(F1.0
F0.3373493975903614
F0.75
F1.0
tp312
a(F1.0
F0.3132530120481928
F0.75
F1.0
tp313
a(F1.0
F0.927710843373494
F0.75
F0.20833333333333334
tp314
a(F1.0
F0.9879518072289156
F0.75
F0.041666666666666664
tp315
a(F1.0
F0.8192771084337349
F0.75
F0.25
tp316
a(F1.0
F0.7349397590361446
F0.75
F0.7083333333333334
tp317
a(F1.0
F0.6144578313253012
F0.75
F0.7083333333333334
tp318
a(F1.0
F0.6144578313253012
F0.75
F0.8333333333333334
tp319
a(F1.0
F0.6746987951807228
F0.75
F0.625
tp320
aa(lp321
(F1.0
F0.6385542168674698
F0.75
F0.3333333333333333
tp322
a(F1.0
F0.4819277108433735
F0.75
F0.7916666666666666
tp323
a(F1.0
F0.3614457831325301
F0.75
F0.8333333333333334
tp324
a(F1.0
F1.0
F0.25
F0.0
tp325
a(F1.0
F0.7469879518072289
F0.75
F0.7083333333333334
tp326
a(F0.5
F0.3132530120481928
F0.75
F0.8333333333333334
tp327
a(F1.0
F0.46987951807228917
F0.75
F1.0
tp328
a(F1.0
F0.8554216867469879
F0.75
F0.08333333333333333
tp329
a(F1.0
F0.8554216867469879
F0.5
F0.2916666666666667
tp330
a(F1.0
F0.5662650602409639
F0.75
F0.875
tp331
a(F1.0
F0.37349397590361444
F0.75
F0.9166666666666666
tp332
a(F1.0
F0.8192771084337349
F0.75
F0.5416666666666666
tp333
a(F1.0
F0.6385542168674698
F0.75
F0.9583333333333334
tp334
a(F1.0
F0.6024096385542169
F0.75
F0.875
tp335
a(F1.0
F0.4939759036144578
F0.75
F0.9583333333333334
tp336
a(F1.0
F0.3132530120481928
F0.75
F0.8333333333333334
tp337
a(F1.0
F0.30120481927710846
F0.75
F0.8333333333333334
tp338
a(F1.0
F0.5542168674698795
F0.75
F1.0
tp339
a(F1.0
F0.3253012048192771
F0.75
F0.875
tp340
a(F1.0
F0.8674698795180723
F0.75
F0.4166666666666667
tp341
a(F1.0
F0.3373493975903614
F0.75
F0.7916666666666666
tp342
a(F1.0
F0.5060240963855421
F0.75
F0.9166666666666666
tp343
a(F1.0
F0.37349397590361444
F0.75
F0.8333333333333334
tp344
a(F1.0
F0.6867469879518072
F0.5
F0.5416666666666666
tp345
a(F1.0
F0.8795180722891566
F0.75
F0.2916666666666667
tp346
a(F1.0
F0.5301204819277109
F0.75
F0.6666666666666666
tp347
a(F1.0
F0.7108433734939759
F0.75
F0.875
tp348
a(F0.5
F0.3855421686746988
F0.75
F0.9583333333333334
tp349
a(F1.0
F0.6987951807228916
F0.75
F0.8333333333333334
tp350
a(F0.5
F0.6385542168674698
F0.75
F0.375
tp351
a(F1.0
F0.3373493975903614
F0.75
F1.0
tp352
a(F1.0
F0.3132530120481928
F0.75
F1.0
tp353
a(F1.0
F0.927710843373494
F0.75
F0.20833333333333334
tp354
a(F1.0
F0.9879518072289156
F0.75
F0.041666666666666664
tp355
a(F1.0
F0.8192771084337349
F0.75
F0.25
tp356
a(F1.0
F0.7349397590361446
F0.75
F0.7083333333333334
tp357
a(F1.0
F0.6144578313253012
F0.75
F0.7083333333333334
tp358
a(F1.0
F0.6144578313253012
F0.75
F0.8333333333333334
tp359
a(F1.0
F0.6746987951807228
F0.75
F0.625
tp360
aa(lp361
(F1.0
F0.6385542168674698
F0.75
F0.3333333333333333
tp362
a(F1.0
F0.4819277108433735
F0.75
F0.7916666666666666
tp363
a(F1.0
F0.3614457831325301
F0.75
F0.8333333333333334
tp364
a(F1.0
F1.0
F0.25
F0.0
tp365
a(F1.0
F0.7469879518072289
F0.75
F0.7083333333333334
tp366
a(F0.5
F0.3132530120481928
F0.75
F0.8333333333333334
tp367
a(F1.0
F0.46987951807228917
F0.75
F1.0
tp368
a(F1.0
F0.8554216867469879
F0.75
F0.08333333333333333
tp369
a(F1.0
F0.8554216867469879
F0.5
F0.2916666666666667
tp370
a(F1.0
F0.5662650602409639
F0.75
F0.875
tp371
a(F1.0
F0.37349397590361444
F0.75
F0.9166666666666666
tp372
a(F1.0
F0.8192771084337349
F0.75
F0.5416666666666666
tp373
a(F1.0
F0.6385542168674698
F0.75
F0.9583333333333334
tp374
a(F1.0
F0.6024096385542169
F0.75
F0.875
tp375
a(F1.0
F0.4939759036144578
F0.75
F0.9583333333333334
tp376
a(F1.0
F0.3132530120481928
F0.75
F0.8333333333333334
tp377
a(F1.0
F0.30120481927710846
F0.75
F0.8333333333333334
tp378
a(F1.0
F0.5542168674698795
F0.75
F1.0
tp379
a(F1.0
F0.3253012048192771
F0.75
F0.875
tp380
a(F1.0
F0.8674698795180723
F0.75
F0.4166666666666667
tp381
a(F1.0
F0.3373493975903614
F0.75
F0.7916666666666666
tp382
a(F1.0
F0.5060240963855421
F0.75
F0.9166666666666666
tp383
a(F1.0
F0.37349397590361444
F0.75
F0.8333333333333334
tp384
a(F1.0
F0.6867469879518072
F0.5
F0.5416666666666666
tp385
a(F1.0
F0.8795180722891566
F0.75
F0.2916666666666667
tp386
a(F1.0
F0.5301204819277109
F0.75
F0.6666666666666666
tp387
a(F1.0
F0.7108433734939759
F0.75
F0.875
tp388
a(F0.5
F0.3855421686746988
F0.75
F0.9583333333333334
tp389
a(F1.0
F0.6987951807228916
F0.75
F0.8333333333333334
tp390
a(F0.5
F0.6385542168674698
F0.75
F0.375
tp391
a(F1.0
F0.3373493975903614
F0.75
F1.0
tp392
a(F1.0
F0.3132530120481928
F0.75
F1.0
tp393
a(F1.0
F0.927710843373494
F0.75
F0.20833333333333334
tp394
a(F1.0
F0.9879518072289156
F0.75
F0.041666666666666664
tp395
a(F1.0
F0.8192771084337349
F0.75
F0.25
tp396
a(F1.0
F0.7349397590361446
F0.75
F0.7083333333333334
tp397
a(F1.0
F0.6144578313253012
F0.75
F0.7083333333333334
tp398
a(F1.0
F0.6144578313253012
F0.75
F0.8333333333333334
tp399
a(F1.0
F0.6746987951807228
F0.75
F0.625
tp400
aa.